target datalayout = "e-m:e-p270:32:32-p271:32:32-p272:64:64-i64:64-i128:128-f80:128-n8:16:32:64-S128"
target triple = "x86_64-pc-linux-gnu"

@.str.18 = private unnamed_addr constant [36 x i8] c"../openssl/test/conf_include_test.c\00", align 1
@.str.43 = private unnamed_addr constant [4 x i8] c"val\00", align 1
@.str.68 = private unnamed_addr constant [6 x i8] c"FNORD\00", align 1
@.str.70 = private unnamed_addr constant [49 x i8] c"NCONF_get_number(NULL, \22missing\22, \22FNORD\22, &val)\00", align 1
@.str.71 = private unnamed_addr constant [8 x i8] c"missing\00", align 1
@.str.75 = private unnamed_addr constant [5 x i8] c"0%ld\00", align 1
@.str.76 = private unnamed_addr constant [9 x i8] c"LONG_MAX\00", align 1

; Function Attrs: nounwind uwtable
define internal i32 @test_check_overflow() #0 {
  %1 = alloca i32, align 4
  %2 = alloca i64, align 8
  %3 = alloca [24 x i8], align 16
  %4 = alloca ptr, align 8
  %5 = alloca i32, align 4
  call void @llvm.lifetime.start.p0(i64 8, ptr %2) #5
  store i64 0, ptr %2, align 8, !tbaa !19
  call void @llvm.lifetime.start.p0(i64 24, ptr %3) #5
  call void @llvm.lifetime.start.p0(i64 8, ptr %4) #5
  %6 = getelementptr inbounds [24 x i8], ptr %3, i64 0, i64 0
  %7 = getelementptr inbounds [24 x i8], ptr %3, i64 0, i64 0
  %8 = call i32 (ptr, i64, ptr, ...) @BIO_snprintf(ptr noundef %7, i64 noundef 24, ptr noundef @.str.75, i64 noundef 9223372036854775807)
  %9 = sext i32 %8 to i64
  %10 = getelementptr inbounds i8, ptr %6, i64 %9
  %11 = getelementptr inbounds i8, ptr %10, i64 -1
  store ptr %11, ptr %4, align 8, !tbaa !4
  %12 = getelementptr inbounds [24 x i8], ptr %3, i64 0, i64 0
  %13 = call i32 @setenv(ptr noundef @.str.68, ptr noundef %12, i32 noundef 1) #5
  %14 = call i32 @NCONF_get_number_e(ptr noundef null, ptr noundef @.str.71, ptr noundef @.str.68, ptr noundef %2)
  %15 = icmp ne i32 %14, 0
  %16 = zext i1 %15 to i32
  %17 = call i32 @test_true(ptr noundef @.str.18, i32 noundef 191, ptr noundef @.str.70, i32 noundef %16)
  %18 = icmp ne i32 %17, 0
  br i1 %18, label %19, label %23

19:                                               ; preds = %0
  %20 = load i64, ptr %2, align 8, !tbaa !19
  %21 = call i32 @test_long_eq(ptr noundef @.str.18, i32 noundef 192, ptr noundef @.str.43, ptr noundef @.str.76, i64 noundef %20, i64 noundef 9223372036854775807)
  %22 = icmp ne i32 %21, 0
  br i1 %22, label %24, label %23

23:                                               ; preds = %19, %0
  store i32 0, ptr %1, align 4
  store i32 1, ptr %5, align 4
  br label %44

24:                                               ; preds = %19
  br label %25

25:                                               ; preds = %31, %24
  %26 = load ptr, ptr %4, align 8, !tbaa !4
  %27 = load i8, ptr %26, align 1, !tbaa !18
  %28 = add i8 %27, 1
  store i8 %28, ptr %26, align 1, !tbaa !18
  %29 = sext i8 %28 to i32
  %30 = icmp sgt i32 %29, 57
  br i1 %30, label %31, label %34

31:                                               ; preds = %25
  %32 = load ptr, ptr %4, align 8, !tbaa !4
  %33 = getelementptr inbounds i8, ptr %32, i32 -1
  store ptr %33, ptr %4, align 8, !tbaa !4
  store i8 48, ptr %32, align 1, !tbaa !18
  br label %25, !llvm.loop !21

34:                                               ; preds = %25
  %35 = getelementptr inbounds [24 x i8], ptr %3, i64 0, i64 0
  %36 = call i32 @setenv(ptr noundef @.str.68, ptr noundef %35, i32 noundef 1) #5
  %37 = call i32 @NCONF_get_number_e(ptr noundef null, ptr noundef @.str.71, ptr noundef @.str.68, ptr noundef %2)
  %38 = icmp ne i32 %37, 0
  %39 = zext i1 %38 to i32
  %40 = call i32 @test_false(ptr noundef @.str.18, i32 noundef 199, ptr noundef @.str.70, i32 noundef %39)
  %41 = icmp ne i32 %40, 0
  br i1 %41, label %43, label %42

42:                                               ; preds = %34
  store i32 0, ptr %1, align 4
  store i32 1, ptr %5, align 4
  br label %44

43:                                               ; preds = %34
  store i32 1, ptr %1, align 4
  store i32 1, ptr %5, align 4
  br label %44

44:                                               ; preds = %43, %42, %23
  call void @llvm.lifetime.end.p0(i64 8, ptr %4) #5
  call void @llvm.lifetime.end.p0(i64 24, ptr %3) #5
  call void @llvm.lifetime.end.p0(i64 8, ptr %2) #5
  %45 = load i32, ptr %1, align 4
  ret i32 %45
}