; Function Attrs: nounwind uwtable
define internal range(i32 0, 2) i32 @test_check_overflow() #1 {
  %1 = alloca i64, align 8
  %2 = alloca [24 x i8], align 16
  call void @llvm.lifetime.start.p0(i64 8, ptr nonnull %1) #8
  store i64 0, ptr %1, align 8, !tbaa !17
  call void @llvm.lifetime.start.p0(i64 24, ptr nonnull %2) #8
  %3 = call i32 (ptr, i64, ptr, ...) @BIO_snprintf(ptr noundef nonnull %2, i64 noundef 24, ptr noundef nonnull @.str.75, i64 noundef 9223372036854775807) #8
  %4 = call i32 @setenv(ptr noundef nonnull @.str.68, ptr noundef nonnull %2, i32 noundef 1) #8
  %5 = call i32 @NCONF_get_number_e(ptr noundef null, ptr noundef nonnull @.str.71, ptr noundef nonnull @.str.68, ptr noundef nonnull %1) #8
  %6 = icmp ne i32 %5, 0
  %7 = zext i1 %6 to i32
  %8 = call i32 @test_true(ptr noundef nonnull @.str.18, i32 noundef 191, ptr noundef nonnull @.str.70, i32 noundef %7) #8
  %.not = icmp eq i32 %8, 0
  br i1 %.not, label %25, label %9

9:                                                ; preds = %0
  %10 = load i64, ptr %1, align 8, !tbaa !17
  %11 = call i32 @test_long_eq(ptr noundef nonnull @.str.18, i32 noundef 192, ptr noundef nonnull @.str.43, ptr noundef nonnull @.str.76, i64 noundef %10, i64 noundef 9223372036854775807) #8
  %.not3 = icmp eq i32 %11, 0
  br i1 %.not3, label %25, label %.preheader

.preheader:                                       ; preds = %9
  %12 = sext i32 %3 to i64
  %13 = getelementptr inbounds i8, ptr %2, i64 %12
  %.05 = getelementptr inbounds i8, ptr %13, i64 -1
  %14 = load i8, ptr %.05, align 1, !tbaa !14
  %15 = add i8 %14, 1
  store i8 %15, ptr %.05, align 1, !tbaa !14
  %16 = icmp sgt i8 %15, 57
  br i1 %16, label %.lr.ph, label %._crit_edge

.lr.ph:                                           ; preds = %.preheader, %.lr.ph
  %.06 = phi ptr [ %.0, %.lr.ph ], [ %.05, %.preheader ]
  store i8 48, ptr %.06, align 1, !tbaa !14
  %.0 = getelementptr inbounds i8, ptr %.06, i64 -1
  %17 = load i8, ptr %.0, align 1, !tbaa !14
  %18 = add i8 %17, 1
  store i8 %18, ptr %.0, align 1, !tbaa !14
  %19 = icmp sgt i8 %18, 57
  br i1 %19, label %.lr.ph, label %._crit_edge, !llvm.loop !19

._crit_edge:                                      ; preds = %.lr.ph, %.preheader
  %20 = call i32 @setenv(ptr noundef nonnull @.str.68, ptr noundef nonnull %2, i32 noundef 1) #8
  %21 = call i32 @NCONF_get_number_e(ptr noundef null, ptr noundef nonnull @.str.71, ptr noundef nonnull @.str.68, ptr noundef nonnull %1) #8
  %22 = icmp ne i32 %21, 0
  %23 = zext i1 %22 to i32
  %24 = call i32 @test_false(ptr noundef nonnull @.str.18, i32 noundef 199, ptr noundef nonnull @.str.70, i32 noundef %23) #8
  %.not4 = icmp ne i32 %24, 0
  %. = zext i1 %.not4 to i32
  br label %25

25:                                               ; preds = %._crit_edge, %0, %9
  %.02 = phi i32 [ 0, %9 ], [ 0, %0 ], [ %., %._crit_edge ]
  call void @llvm.lifetime.end.p0(i64 24, ptr nonnull %2) #8
  call void @llvm.lifetime.end.p0(i64 8, ptr nonnull %1) #8
  ret i32 %.02
}